; Function Attrs: mustprogress nounwind uwtable
define hidden noundef ptr @_ZN31G1ConcurrentRefineThreadControl24create_refinement_threadEjb(ptr nocapture noundef nonnull readonly align 8 dereferenceable(24) %0, i32 noundef %1, i1 noundef zeroext %2) local_unnamed_addr #0 align 2 {
  br i1 %2, label %7, label %4

4:                                                ; preds = %3
  %5 = load i8, ptr @InjectGCWorkerCreationFailure, align 1
  %6 = trunc i8 %5 to i1
  br i1 %6, label %.thread, label %7

7:                                                ; preds = %3, %4
  %8 = load ptr, ptr %0, align 8
  %9 = tail call noundef ptr @_ZN24G1ConcurrentRefineThread6createEP18G1ConcurrentRefinej(ptr noundef %8, i32 noundef %1) #17
  %10 = icmp eq ptr %9, null
  br i1 %10, label %.thread, label %11

11:                                               ; preds = %7
  %12 = getelementptr inbounds i8, ptr %9, i64 792
  %13 = load ptr, ptr %12, align 8
  %14 = icmp eq ptr %13, null
  br i1 %14, label %.thread, label %24

.thread:                                          ; preds = %4, %11, %7
  %15 = phi i1 [ false, %11 ], [ true, %7 ], [ true, %4 ]
  %.010 = phi ptr [ %9, %11 ], [ null, %7 ], [ null, %4 ]
  %16 = load volatile ptr, ptr getelementptr inbounds (i8, ptr @_ZN16LogTagSetMappingILN6LogTag4typeE49ELS1_0ELS1_0ELS1_0ELS1_0ELS1_0EE7_tagsetE, i64 72), align 8
  %.not = icmp eq ptr %16, null
  br i1 %.not, label %19, label %17

17:                                               ; preds = %.thread
  %18 = select i1 %15, ptr @.str.4, ptr @.str.5
  tail call void (ptr, ...) @_ZN7LogImplILN6LogTag4typeE49ELS1_0ELS1_0ELS1_0ELS1_0ELS1_0EE5writeILN8LogLevel4typeE4EEEvPKcz(ptr noundef nonnull @.str, i32 noundef %1, ptr noundef nonnull %18)
  br label %19

19:                                               ; preds = %.thread, %17
  br i1 %15, label %24, label %20

20:                                               ; preds = %19
  %21 = load ptr, ptr %.010, align 8
  %22 = getelementptr inbounds i8, ptr %21, i64 16
  %23 = load ptr, ptr %22, align 8
  tail call void %23(ptr noundef nonnull align 8 dereferenceable(1104) %.010) #17
  br label %24

24:                                               ; preds = %19, %20, %11
  %.1 = phi ptr [ null, %20 ], [ null, %19 ], [ %9, %11 ]
  ret ptr %.1
}